Certificate:
    Data:
        Version: 3 (0x2)
        Serial Number:
            37:52:b7:74:9d:2a:bb:f6:d4:d0:87:9c:ae:c7:a0:84
    Signature Algorithm: sha256WithRSAEncryption
        Issuer: CN=Test Subordinate CA
        Validity
            Not Before: Nov 17 15:04:16 2022 GMT
            Not After : Nov 17 15:04:16 2023 GMT
        Subject: C=RO, ST=Iasi, O=seven, OU=seven, CN=sevenseven.com/emailAddress=test77@gmail.com
        Subject Public Key Info:
            Public Key Algorithm: rsaEncryption
                Public-Key: (2048 bit)
                Modulus:
                    00:c8:ca:b3:51:79:71:6a:df:ed:ae:39:07:72:49:
                    91:c9:b3:61:73:5e:6d:a1:8f:a1:6f:6e:90:06:39:
                    1e:7a:cc:ba:52:dc:7b:3e:91:d2:94:56:96:f1:f9:
                    00:fc:af:a0:15:12:ef:35:3b:e5:f0:09:19:9e:0d:
                    55:33:4b:0c:a7:67:c1:78:55:36:de:f2:76:ae:26:
                    d1:b2:9f:ce:19:10:d4:88:36:16:8f:3d:d6:16:f3:
                    4b:12:9a:d8:24:cc:11:1e:0f:1d:69:64:35:3b:97:
                    e8:52:5d:cf:e0:f0:f3:3a:a7:ee:2c:44:39:24:31:
                    71:56:82:10:fa:89:ef:71:4e:e1:92:4c:25:60:1f:
                    0e:21:1f:96:f8:84:df:fd:5c:98:37:d6:51:2b:52:
                    45:2e:6f:0f:66:15:4d:ec:06:6c:78:36:92:ce:b3:
                    3b:ab:e1:4e:d8:0d:56:91:e8:55:29:6f:2c:d3:42:
                    57:c5:6f:65:0b:3a:95:47:db:d2:ad:07:ef:c3:97:
                    c8:da:0d:f1:fa:96:d9:48:5c:6b:11:88:79:7b:be:
                    b4:74:a5:f3:8d:c5:a3:22:87:d3:cf:ce:eb:11:87:
                    50:c5:1b:ef:41:ed:86:dd:66:d8:ca:ee:eb:12:29:
                    e4:b2:a1:25:87:ad:63:fb:b6:22:fb:44:22:38:2b:
                    74:91
                Exponent: 65537 (0x10001)
        X509v3 extensions:
            X509v3 Authority Key Identifier: 
                keyid:78:87:68:FC:98:4C:14:09:C6:A2:CD:3D:97:A2:5A:77:5E:2B:00:19

            X509v3 Basic Constraints: critical
                CA:FALSE
            X509v3 Extended Key Usage: 
                TLS Web Client Authentication
            X509v3 Key Usage: critical
                Digital Signature
            X509v3 Subject Key Identifier: 
                CE:96:D3:91:93:F0:C2:80:81:8A:5E:E2:03:60:2F:84:81:71:5E:9F
    Signature Algorithm: sha256WithRSAEncryption
         46:31:d1:30:b6:fd:83:f2:08:02:c5:38:ae:74:12:42:e4:f9:
         6b:3b:0b:fd:e3:c1:c8:74:d8:97:da:41:b5:eb:fc:f7:71:e6:
         43:34:72:4f:c6:bd:42:8c:20:ca:77:b8:7f:65:d2:1f:bd:c6:
         d2:b4:62:b7:e5:df:53:fa:b7:c9:fb:58:e6:5f:59:a1:aa:9d:
         01:39:52:ff:b9:f8:d1:2f:96:f5:c6:78:d9:79:2e:30:8d:c3:
         f3:46:1a:5e:76:1a:bc:41:b0:18:b7:e9:6c:1b:d5:b0:4b:a6:
         cc:00:01:0e:42:a7:28:89:43:75:db:5f:8d:e3:85:3c:ca:a1:
         4b:86:62:a4:2d:bb:bc:46:59:b1:c8:2d:6b:8c:a2:a6:01:ce:
         e5:63:4a:57:a7:07:89:96:69:53:d4:a6:5f:8b:b2:83:11:31:
         30:1c:f3:0c:d1:ad:9b:44:ae:59:aa:84:e0:c7:3a:92:6c:d1:
         0b:6c:f2:03:2a:a8:b7:ba:2d:fd:91:53:71:80:30:48:6c:61:
         e8:c3:0a:03:bd:23:2b:86:0d:c0:55:7a:cf:f4:6a:cd:32:3d:
         1e:df:7f:7b:07:1c:3c:fe:14:e6:7b:f6:a8:0f:54:b4:2b:a9:
         3b:f2:48:74:a1:b1:bb:43:48:04:69:b8:e1:e2:aa:b0:2d:f9:
         55:1e:23:e6
-----BEGIN CERTIFICATE-----
MIIDkzCCAnugAwIBAgIQN1K3dJ0qu/bU0IecrseghDANBgkqhkiG9w0BAQsFADAe
MRwwGgYDVQQDDBNUZXN0IFN1Ym9yZGluYXRlIENBMB4XDTIyMTExNzE1MDQxNloX
DTIzMTExNzE1MDQxNlowdjELMAkGA1UEBhMCUk8xDTALBgNVBAgMBElhc2kxDjAM
BgNVBAoMBXNldmVuMQ4wDAYDVQQLDAVzZXZlbjEXMBUGA1UEAwwOc2V2ZW5zZXZl
bi5jb20xHzAdBgkqhkiG9w0BCQEWEHRlc3Q3N0BnbWFpbC5jb20wggEiMA0GCSqG
SIb3DQEBAQUAA4IBDwAwggEKAoIBAQDIyrNReXFq3+2uOQdySZHJs2FzXm2hj6Fv
bpAGOR56zLpS3Hs+kdKUVpbx+QD8r6AVEu81O+XwCRmeDVUzSwynZ8F4VTbe8nau
JtGyn84ZENSINhaPPdYW80sSmtgkzBEeDx1pZDU7l+hSXc/g8PM6p+4sRDkkMXFW
ghD6ie9xTuGSTCVgHw4hH5b4hN/9XJg31lErUkUubw9mFU3sBmx4NpLOszur4U7Y
DVaR6FUpbyzTQlfFb2ULOpVH29KtB+/Dl8jaDfH6ltlIXGsRiHl7vrR0pfONxaMi
h9PPzusRh1DFG+9B7YbdZtjK7usSKeSyoSWHrWP7tiL7RCI4K3SRAgMBAAGjdTBz
MB8GA1UdIwQYMBaAFHiHaPyYTBQJxqLNPZeiWndeKwAZMAwGA1UdEwEB/wQCMAAw
EwYDVR0lBAwwCgYIKwYBBQUHAwIwDgYDVR0PAQH/BAQDAgeAMB0GA1UdDgQWBBTO
ltORk/DCgIGKXuIDYC+EgXFenzANBgkqhkiG9w0BAQsFAAOCAQEARjHRMLb9g/II
AsU4rnQSQuT5azsL/ePByHTYl9pBtev893HmQzRyT8a9Qowgyne4f2XSH73G0rRi
t+XfU/q3yftY5l9ZoaqdATlS/7n40S+W9cZ42XkuMI3D80YaXnYavEGwGLfpbBvV
sEumzAABDkKnKIlDddtfjeOFPMqhS4ZipC27vEZZscgta4yipgHO5WNKV6cHiZZp
U9SmX4uygxExMBzzDNGtm0SuWaqE4Mc6kmzRC2zyAyqot7ot/ZFTcYAwSGxh6MMK
A70jK4YNwFV6z/RqzTI9Ht9/ewccPP4U5nv2qA9UtCupO/JIdKGxu0NIBGm44eKq
sC35VR4j5g==
-----END CERTIFICATE-----
