Certificate:
    Data:
        Version: 3 (0x2)
        Serial Number:
            f4:37:8d:e6:4c:25:62:ca:14:30:e9:a0:2f:ad:10:65
    Signature Algorithm: sha256WithRSAEncryption
        Issuer: CN=Test Root CA
        Validity
            Not Before: Nov 17 14:19:22 2022 GMT
            Not After : Nov 14 14:19:22 2032 GMT
        Subject: CN=Test Root CA
        Subject Public Key Info:
            Public Key Algorithm: rsaEncryption
                Public-Key: (2048 bit)
                Modulus:
                    00:cd:64:63:13:64:17:43:84:63:aa:8b:6c:ea:20:
                    20:10:2d:f1:6d:36:b9:00:e3:e5:93:e7:c5:6e:44:
                    8c:a7:d8:5c:9b:16:f0:ac:7a:03:1d:4b:cb:ef:4d:
                    4a:f2:91:df:ec:ef:ba:90:c6:92:7c:e2:a6:ac:e1:
                    92:8c:7d:18:e0:88:e6:2a:12:79:63:a0:00:46:55:
                    a6:d8:b4:37:0d:b9:d6:15:01:40:fe:df:d6:b2:40:
                    da:63:90:bb:66:c0:84:a5:b2:ae:ee:4f:d2:8a:4b:
                    dc:c1:3d:64:7e:e8:70:c2:3c:cb:de:dc:d4:10:2a:
                    fe:bc:45:b1:89:ae:20:61:44:c0:1b:96:d4:e3:47:
                    24:79:f9:18:1c:f6:47:e8:7f:42:18:23:50:9f:0e:
                    ff:80:d3:79:8d:42:32:22:e0:fa:72:10:59:61:2a:
                    df:b4:ef:54:38:dc:2f:fc:59:1c:4c:ce:58:f0:e2:
                    65:e7:b0:01:76:99:af:74:aa:54:d8:42:cf:37:d4:
                    3e:18:33:8a:07:f2:14:7c:e0:fb:a2:ac:29:eb:ab:
                    83:88:bf:62:17:7d:14:42:8e:b1:6e:ac:f2:ac:d1:
                    22:81:18:f7:16:87:c0:81:30:67:bc:aa:f1:cc:9f:
                    23:11:68:e4:ed:23:dc:96:e3:cf:1b:38:b1:9f:ed:
                    42:85
                Exponent: 65537 (0x10001)
        X509v3 extensions:
            X509v3 Basic Constraints: critical
                CA:TRUE
            X509v3 Key Usage: critical
                Certificate Sign, CRL Sign
            X509v3 Subject Key Identifier: 
                C7:E8:04:8E:76:F5:75:03:08:67:F5:B6:C2:CB:88:5E:A7:AD:33:CF
    Signature Algorithm: sha256WithRSAEncryption
         60:12:85:7d:79:78:17:c9:14:43:af:05:9e:c2:23:25:af:d5:
         ae:f0:da:e0:08:34:73:5e:52:91:e7:9b:14:6f:61:50:3f:95:
         34:98:4e:5d:39:23:b4:41:bf:1d:8e:eb:b4:56:db:75:31:2c:
         0f:3f:a6:0c:fc:8e:b9:a8:a1:ac:b9:6f:27:26:bd:52:04:b5:
         85:23:da:4d:9e:63:d7:b5:00:e8:0d:5f:03:79:60:16:6f:39:
         a8:4e:07:41:7a:96:63:00:52:9c:e8:aa:a1:fe:c8:bd:70:3f:
         92:f7:7e:9d:d6:96:62:85:c2:96:de:8f:58:2f:59:3b:64:68:
         a2:23:c1:6c:a3:89:fe:04:00:d3:29:0d:ad:04:24:00:9b:40:
         0a:46:73:c8:6a:77:68:ff:06:69:fa:88:cc:69:c6:44:19:c0:
         6e:22:98:a9:22:53:28:0e:20:92:de:83:bc:01:09:1b:75:50:
         9c:e6:e1:56:24:25:ec:43:76:f5:ad:a4:f0:ab:d9:69:04:3c:
         65:70:1d:c6:b5:f8:64:96:0c:ef:91:92:7a:b5:e4:e2:d3:28:
         6e:df:7b:66:b5:af:43:56:fe:39:c3:8d:63:1e:59:35:03:c5:
         c9:1f:f0:ef:32:bf:c0:9e:b7:f0:e4:ba:56:cc:c0:ac:5a:bd:
         95:40:61:83
-----BEGIN CERTIFICATE-----
MIIC+zCCAeOgAwIBAgIRAPQ3jeZMJWLKFDDpoC+tEGUwDQYJKoZIhvcNAQELBQAw
FzEVMBMGA1UEAwwMVGVzdCBSb290IENBMB4XDTIyMTExNzE0MTkyMloXDTMyMTEx
NDE0MTkyMlowFzEVMBMGA1UEAwwMVGVzdCBSb290IENBMIIBIjANBgkqhkiG9w0B
AQEFAAOCAQ8AMIIBCgKCAQEAzWRjE2QXQ4Rjqots6iAgEC3xbTa5AOPlk+fFbkSM
p9hcmxbwrHoDHUvL701K8pHf7O+6kMaSfOKmrOGSjH0Y4IjmKhJ5Y6AARlWm2LQ3
DbnWFQFA/t/WskDaY5C7ZsCEpbKu7k/SikvcwT1kfuhwwjzL3tzUECr+vEWxia4g
YUTAG5bU40ckefkYHPZH6H9CGCNQnw7/gNN5jUIyIuD6chBZYSrftO9UONwv/Fkc
TM5Y8OJl57ABdpmvdKpU2ELPN9Q+GDOKB/IUfOD7oqwp66uDiL9iF30UQo6xbqzy
rNEigRj3FofAgTBnvKrxzJ8jEWjk7SPcluPPGzixn+1ChQIDAQABo0IwQDAPBgNV
HRMBAf8EBTADAQH/MA4GA1UdDwEB/wQEAwIBBjAdBgNVHQ4EFgQUx+gEjnb1dQMI
Z/W2wsuIXqetM88wDQYJKoZIhvcNAQELBQADggEBAGAShX15eBfJFEOvBZ7CIyWv
1a7w2uAINHNeUpHnmxRvYVA/lTSYTl05I7RBvx2O67RW23UxLA8/pgz8jrmooay5
bycmvVIEtYUj2k2eY9e1AOgNXwN5YBZvOahOB0F6lmMAUpzoqqH+yL1wP5L3fp3W
lmKFwpbej1gvWTtkaKIjwWyjif4EANMpDa0EJACbQApGc8hqd2j/Bmn6iMxpxkQZ
wG4imKkiUygOIJLeg7wBCRt1UJzm4VYkJexDdvWtpPCr2WkEPGVwHca1+GSWDO+R
knq15OLTKG7fe2a1r0NW/jnDjWMeWTUDxckf8O8yv8Cet/DkulbMwKxavZVAYYM=
-----END CERTIFICATE-----
