Certificate:
    Data:
        Version: 3 (0x2)
        Serial Number:
            f4:37:8d:e6:4c:25:62:ca:14:30:e9:a0:2f:ad:10:66
    Signature Algorithm: sha256WithRSAEncryption
        Issuer: CN=Test Root CA
        Validity
            Not Before: Nov 17 14:31:30 2022 GMT
            Not After : Nov 14 14:31:30 2032 GMT
        Subject: CN=Test Subordinate CA
        Subject Public Key Info:
            Public Key Algorithm: rsaEncryption
                Public-Key: (2048 bit)
                Modulus:
                    00:df:67:20:da:19:1d:e6:05:00:a1:1d:c7:8b:05:
                    a4:d1:b5:b3:08:61:4b:f5:9a:fe:32:d1:b6:a2:fa:
                    89:7f:0a:dd:ef:55:b0:34:e8:af:04:22:3c:9b:3b:
                    90:f8:0b:13:9c:7a:1f:06:6d:ee:67:70:13:ea:04:
                    06:ec:71:c5:3e:8a:18:1a:b0:64:ff:b2:30:89:9f:
                    eb:e9:98:18:b6:11:67:57:e0:7d:27:40:bf:d9:4f:
                    88:88:75:8e:ce:45:ba:ff:11:4b:43:f8:43:74:1f:
                    27:b7:21:30:a8:9d:4e:dc:77:b0:69:8a:ef:61:a1:
                    41:e4:57:c4:ae:3c:76:7d:75:43:21:cf:b5:42:0e:
                    d5:23:94:a1:67:af:33:28:07:33:ac:92:a3:a5:ab:
                    72:88:b9:43:0a:eb:d6:7e:d2:8f:2a:1e:a2:c1:9d:
                    b9:7d:1e:a1:55:dc:f4:39:0f:8d:a1:a7:b1:78:33:
                    38:33:38:c5:3b:fc:84:92:23:2a:3f:66:2c:de:5d:
                    9a:5c:15:5d:5d:03:a2:50:98:6b:2f:9b:fa:b8:2b:
                    a0:f9:fb:94:0d:cd:6f:5c:03:88:69:11:89:90:33:
                    c5:e1:dc:e0:39:e3:8b:25:51:46:e6:a1:9e:4b:20:
                    fe:0c:8e:0d:cd:eb:bc:ab:65:9e:44:f6:2b:21:69:
                    5a:23
                Exponent: 65537 (0x10001)
        X509v3 extensions:
            X509v3 Authority Key Identifier: 
                keyid:C7:E8:04:8E:76:F5:75:03:08:67:F5:B6:C2:CB:88:5E:A7:AD:33:CF

            X509v3 Basic Constraints: critical
                CA:TRUE, pathlen:0
            X509v3 Extended Key Usage: 
                TLS Web Client Authentication, TLS Web Server Authentication
            X509v3 Key Usage: critical
                Certificate Sign, CRL Sign
            X509v3 Subject Key Identifier: 
                78:87:68:FC:98:4C:14:09:C6:A2:CD:3D:97:A2:5A:77:5E:2B:00:19
    Signature Algorithm: sha256WithRSAEncryption
         9e:ce:1e:c5:fa:b8:b5:b6:34:92:8a:52:7c:62:69:38:c6:16:
         4d:f9:53:f3:c3:7e:21:d5:b1:ad:8e:03:61:20:84:b1:3a:f6:
         68:c2:a0:05:49:6f:9d:b7:76:9a:48:11:3f:1c:95:cc:2b:42:
         73:09:f2:b7:3b:8b:84:67:05:60:ff:fc:c2:60:96:31:b1:bc:
         0d:02:2d:f1:18:f2:51:23:da:c3:fa:d9:b4:6a:54:7a:22:54:
         7d:d1:8e:d5:9e:09:9d:01:1c:5f:19:8d:1b:3f:7d:f4:de:4b:
         65:54:0f:31:6c:73:75:17:3f:18:97:b9:ad:8c:aa:f0:1c:72:
         79:74:a2:34:13:1b:97:1d:be:25:27:2e:d9:56:47:ed:47:be:
         a1:ec:90:96:8a:f9:42:fc:1d:30:a7:fd:f4:ae:6f:31:ac:c9:
         1e:8b:43:53:10:47:5b:0f:fb:2c:88:ff:6a:5f:0d:87:8c:67:
         c1:58:c4:7c:de:2d:e7:bb:6c:e4:7a:69:17:3b:92:07:e4:c6:
         3e:66:47:7e:d9:08:48:1e:4c:07:bb:e7:89:c3:a8:76:a4:48:
         30:54:5d:8d:c5:1e:ba:0d:3e:ca:9e:f0:ce:6b:6f:a4:f2:f8:
         d2:15:64:dc:b7:c9:8f:ed:d9:16:44:17:00:0e:36:f4:e5:1c:
         8b:aa:30:9e
-----BEGIN CERTIFICATE-----
MIIDRzCCAi+gAwIBAgIRAPQ3jeZMJWLKFDDpoC+tEGYwDQYJKoZIhvcNAQELBQAw
FzEVMBMGA1UEAwwMVGVzdCBSb290IENBMB4XDTIyMTExNzE0MzEzMFoXDTMyMTEx
NDE0MzEzMFowHjEcMBoGA1UEAwwTVGVzdCBTdWJvcmRpbmF0ZSBDQTCCASIwDQYJ
KoZIhvcNAQEBBQADggEPADCCAQoCggEBAN9nINoZHeYFAKEdx4sFpNG1swhhS/Wa
/jLRtqL6iX8K3e9VsDTorwQiPJs7kPgLE5x6HwZt7mdwE+oEBuxxxT6KGBqwZP+y
MImf6+mYGLYRZ1fgfSdAv9lPiIh1js5Fuv8RS0P4Q3QfJ7chMKidTtx3sGmK72Gh
QeRXxK48dn11QyHPtUIO1SOUoWevMygHM6ySo6Wrcoi5Qwrr1n7SjyoeosGduX0e
oVXc9DkPjaGnsXgzODM4xTv8hJIjKj9mLN5dmlwVXV0DolCYay+b+rgroPn7lA3N
b1wDiGkRiZAzxeHc4DnjiyVRRuahnksg/gyODc3rvKtlnkT2KyFpWiMCAwEAAaOB
hjCBgzAfBgNVHSMEGDAWgBTH6ASOdvV1Awhn9bbCy4hep60zzzASBgNVHRMBAf8E
CDAGAQH/AgEAMB0GA1UdJQQWMBQGCCsGAQUFBwMCBggrBgEFBQcDATAOBgNVHQ8B
Af8EBAMCAQYwHQYDVR0OBBYEFHiHaPyYTBQJxqLNPZeiWndeKwAZMA0GCSqGSIb3
DQEBCwUAA4IBAQCezh7F+ri1tjSSilJ8Ymk4xhZN+VPzw34h1bGtjgNhIISxOvZo
wqAFSW+dt3aaSBE/HJXMK0JzCfK3O4uEZwVg//zCYJYxsbwNAi3xGPJRI9rD+tm0
alR6IlR90Y7VngmdARxfGY0bP3303ktlVA8xbHN1Fz8Yl7mtjKrwHHJ5dKI0ExuX
Hb4lJy7ZVkftR76h7JCWivlC/B0wp/30rm8xrMkei0NTEEdbD/ssiP9qXw2HjGfB
WMR83i3nu2zkemkXO5IH5MY+Zkd+2QhIHkwHu+eJw6h2pEgwVF2NxR66DT7KnvDO
a2+k8vjSFWTct8mP7dkWRBcADjb05RyLqjCe
-----END CERTIFICATE-----
